target datalayout = "e-m:e-p270:32:32-p271:32:32-p272:64:64-i64:64-i128:128-f80:128-n8:16:32:64-S128"
target triple = "x86_64-pc-linux-gnu"

%struct.QTailQLink = type { ptr, ptr }
%struct.CPUState = type { %struct.DeviceState, ptr, i32, ptr, i32, i8, i8, ptr, i8, i8, i8, i8, i8, i8, i8, i8, i32, i32, i32, i32, i64, i64, i64, [1 x %struct.__jmp_buf_tag], %struct.QemuMutex, %struct.anon, ptr, i32, i32, ptr, ptr, ptr, ptr, i32, i32, %union.anon, %union.anon.0, %union.anon.1, ptr, ptr, i64, i32, ptr, ptr, ptr, i32, i64, i32, i8, %struct.QemuLockCnt, ptr, i32, i32, i32, i32, i32, ptr, i8, i64, i8, i8, ptr, [0 x i8], %struct.CPUNegativeOffsetState }
%struct.DeviceState = type { %struct.Object, ptr, ptr, i8, i8, i64, i32, i8, ptr, %struct.NamedGPIOListHead, %struct.NamedClockListHead, %struct.BusStateHead, i32, i32, i32, %struct.ResettableState, ptr, %struct.MemReentrancyGuard }
%struct.Object = type { ptr, ptr, ptr, i32, ptr }
%struct.NamedGPIOListHead = type { ptr }
%struct.NamedClockListHead = type { ptr }
%struct.BusStateHead = type { ptr }
%struct.ResettableState = type { i32, i8, i8 }
%struct.MemReentrancyGuard = type { i8 }
%struct.__jmp_buf_tag = type { [8 x i64], i32, %struct.__sigset_t }
%struct.__sigset_t = type { [16 x i64] }
%struct.QemuMutex = type { %union.pthread_mutex_t, i8 }
%union.pthread_mutex_t = type { %struct.__pthread_mutex_s }
%struct.__pthread_mutex_s = type { i32, i32, i32, i32, i32, i16, i16, %struct.__pthread_internal_list }
%struct.__pthread_internal_list = type { ptr, ptr }
%struct.anon = type { ptr, ptr }
%union.anon = type { %struct.QTailQLink }
%union.anon.0 = type { %struct.QTailQLink }
%union.anon.1 = type { %struct.QTailQLink }
%struct.QemuLockCnt = type { i32 }
%struct.CPUNegativeOffsetState = type { %struct.CPUTLB, ptr, i64, i64, %union.IcountDecr, i8 }
%struct.CPUTLB = type { %struct.CPUTLBCommon, [16 x %struct.CPUTLBDesc], [16 x %struct.CPUTLBDescFast] }
%struct.CPUTLBCommon = type { %struct.QemuSpin, i16, i64, i64, i64 }
%struct.QemuSpin = type { i32 }
%struct.CPUTLBDesc = type { i64, i64, i64, i64, i64, i64, [8 x %union.CPUTLBEntry], [8 x %struct.CPUTLBEntryFull], ptr }
%union.CPUTLBEntry = type { %struct.anon.2 }
%struct.anon.2 = type { i64, i64, i64, i64 }
%struct.CPUTLBEntryFull = type { i64, i64, %struct.MemTxAttrs, i8, i8, i8, [3 x i8], %union.anon.3 }
%struct.MemTxAttrs = type { i32, i8, i8, i16 }
%union.anon.3 = type { %struct.anon.4 }
%struct.anon.4 = type { i8, i8, i8 }
%struct.CPUTLBDescFast = type { i64, ptr }
%union.IcountDecr = type { i32 }

@.str = private unnamed_addr constant [29 x i8] c"../qemu/hw/core/cpu-common.c\00", align 1

; Function Attrs: nounwind sspstrong uwtable
define dso_local void @cpu_reset_interrupt(ptr noundef %0, i32 noundef %1) #0 {
  %3 = alloca ptr, align 8
  %4 = alloca i32, align 4
  %5 = alloca i8, align 1
  store ptr %0, ptr %3, align 8
  store i32 %1, ptr %4, align 4
  call void @llvm.lifetime.start.p0(i64 1, ptr %5) #13
  %6 = call zeroext i1 @bql_locked()
  %7 = xor i1 %6, true
  %8 = zext i1 %7 to i8
  store i8 %8, ptr %5, align 1
  %9 = load i8, ptr %5, align 1, !range !11, !noundef !12
  %10 = trunc i8 %9 to i1
  br i1 %10, label %11, label %12

11:                                               ; preds = %2
  call void @bql_lock_impl(ptr noundef @.str, i32 noundef 76)
  br label %12

12:                                               ; preds = %11, %2
  %13 = load i32, ptr %4, align 4
  %14 = xor i32 %13, -1
  %15 = load ptr, ptr %3, align 8
  %16 = getelementptr inbounds nuw %struct.CPUState, ptr %15, i32 0, i32 18
  %17 = load i32, ptr %16, align 16
  %18 = and i32 %17, %14
  store i32 %18, ptr %16, align 16
  %19 = load i8, ptr %5, align 1, !range !11, !noundef !12
  %20 = trunc i8 %19 to i1
  br i1 %20, label %21, label %22

21:                                               ; preds = %12
  call void @bql_unlock()
  br label %22

22:                                               ; preds = %21, %12
  call void @llvm.lifetime.end.p0(i64 1, ptr %5) #13
  ret void
}