; Function Attrs: nounwind sspstrong uwtable
define dso_local void @cpu_reset_interrupt(ptr noundef captures(none) %0, i32 noundef %1) local_unnamed_addr #0 {
  %3 = tail call zeroext i1 @bql_locked() #12
  br i1 %3, label %.critedge, label %4

4:                                                ; preds = %2
  tail call void @bql_lock_impl(ptr noundef nonnull @.str, i32 noundef 76) #12
  %5 = xor i32 %1, -1
  %6 = getelementptr inbounds nuw i8, ptr %0, i64 208
  %7 = load i32, ptr %6, align 16
  %8 = and i32 %7, %5
  store i32 %8, ptr %6, align 16
  tail call void @bql_unlock() #12
  br label %13

.critedge:                                        ; preds = %2
  %9 = xor i32 %1, -1
  %10 = getelementptr inbounds nuw i8, ptr %0, i64 208
  %11 = load i32, ptr %10, align 16
  %12 = and i32 %11, %9
  store i32 %12, ptr %10, align 16
  br label %13

13:                                               ; preds = %.critedge, %4
  ret void
}